; Function Attrs: nounwind uwtable
define void @glfwSwapInterval(i32 noundef %0) local_unnamed_addr #0 {
  %2 = load i32, ptr @_glfw, align 8, !tbaa !78
  %.not = icmp eq i32 %2, 0
  br i1 %.not, label %3, label %4

3:                                                ; preds = %1
  tail call void (i32, ptr, ...) @_glfwInputError(i32 noundef 65537, ptr noundef null) #7
  br label %10

4:                                                ; preds = %1
  %5 = tail call ptr @_glfwPlatformGetTls(ptr noundef nonnull getelementptr inbounds nuw (i8, ptr @_glfw, i64 133412)) #7
  %.not2 = icmp eq ptr %5, null
  br i1 %.not2, label %6, label %7

6:                                                ; preds = %4
  tail call void (i32, ptr, ...) @_glfwInputError(i32 noundef 65538, ptr noundef nonnull @.str.32) #7
  br label %10

7:                                                ; preds = %4
  %8 = getelementptr inbounds nuw i8, ptr %5, i64 616
  %9 = load ptr, ptr %8, align 8, !tbaa !172
  tail call void %9(i32 noundef %0) #7
  br label %10

10:                                               ; preds = %7, %6, %3
  ret void
}